; Function Attrs: mustprogress nofree norecurse nosync nounwind willreturn memory(read, inaccessiblemem: none) uwtable
define hidden { <2 x float>, <2 x float> } @b2GetBodyTransform(ptr noundef readonly captures(none) %0, i32 noundef %1) local_unnamed_addr #7 {
  %3 = getelementptr inbounds nuw i8, ptr %0, i64 1032
  %.val = load ptr, ptr %3, align 8, !tbaa !10
  %4 = sext i32 %1 to i64
  %5 = getelementptr inbounds %struct.b2Body, ptr %.val, i64 %4
  %6 = getelementptr inbounds nuw i8, ptr %0, i64 1072
  %7 = getelementptr inbounds nuw i8, ptr %5, i64 40
  %8 = load i32, ptr %7, align 8, !tbaa !19
  %.val.i = load ptr, ptr %6, align 8, !tbaa !24
  %9 = sext i32 %8 to i64
  %10 = getelementptr inbounds %struct.b2SolverSet, ptr %.val.i, i64 %9
  %11 = getelementptr inbounds nuw i8, ptr %5, i64 44
  %12 = load i32, ptr %11, align 4, !tbaa !27
  %.val5.i = load ptr, ptr %10, align 8, !tbaa !14
  %13 = sext i32 %12 to i64
  %14 = getelementptr inbounds %struct.b2BodySim, ptr %.val5.i, i64 %13
  %.sroa.0.0.copyload.i = load <2 x float>, ptr %14, align 4
  %.sroa.2.0..sroa_idx.i = getelementptr inbounds nuw i8, ptr %14, i64 8
  %.sroa.2.0.copyload.i = load <2 x float>, ptr %.sroa.2.0..sroa_idx.i, align 4
  %.fca.0.insert.i = insertvalue { <2 x float>, <2 x float> } poison, <2 x float> %.sroa.0.0.copyload.i, 0
  %.fca.1.insert.i = insertvalue { <2 x float>, <2 x float> } %.fca.0.insert.i, <2 x float> %.sroa.2.0.copyload.i, 1
  ret { <2 x float>, <2 x float> } %.fca.1.insert.i
}